; ModuleID = 'source-C-CXX/60/603.c'
source_filename = "source-C-CXX/60/603.c"
target datalayout = "e-m:e-p270:32:32-p271:32:32-p272:64:64-i64:64-f80:128-n8:16:32:64-S128"
target triple = "x86_64-pc-linux-gnu"

@.str = private unnamed_addr constant [3 x i8] c"%d\00", align 1
@.str.1 = private unnamed_addr constant [5 x i8] c"%d/n\00", align 1
@.str.2 = private unnamed_addr constant [4 x i8] c"%d\0A\00", align 1

; Function Attrs: nofree nounwind sspstrong uwtable
define dso_local i32 @main() local_unnamed_addr #0 {
  %1 = alloca i32, align 4
  %2 = alloca i32, align 4
  %3 = alloca [10000 x i32], align 16
  %4 = alloca [10000 x i32], align 16
  %5 = bitcast i32* %1 to i8*
  call void @llvm.lifetime.start.p0i8(i64 4, i8* nonnull %5) #3
  %6 = bitcast i32* %2 to i8*
  call void @llvm.lifetime.start.p0i8(i64 4, i8* nonnull %6) #3
  %7 = bitcast [10000 x i32]* %3 to i8*
  call void @llvm.lifetime.start.p0i8(i64 40000, i8* nonnull %7) #3
  %8 = bitcast [10000 x i32]* %4 to i8*
  call void @llvm.lifetime.start.p0i8(i64 40000, i8* nonnull %8) #3
  %9 = getelementptr inbounds [10000 x i32], [10000 x i32]* %3, i64 0, i64 0
  store i32 1, i32* %9, align 16, !tbaa !5
  %10 = getelementptr inbounds [10000 x i32], [10000 x i32]* %3, i64 0, i64 1
  store i32 1, i32* %10, align 4, !tbaa !5
  %11 = call i32 (i8*, ...) @__isoc99_scanf(i8* getelementptr inbounds ([3 x i8], [3 x i8]* @.str, i64 0, i64 0), i32* nonnull %1)
  %12 = load i32, i32* %1, align 4, !tbaa !5
  %13 = icmp slt i32 %12, 1
  br i1 %13, label %14, label %17

14:                                               ; preds = %17, %0
  %15 = phi i32 [ %12, %0 ], [ %24, %17 ]
  %16 = getelementptr inbounds [10000 x i32], [10000 x i32]* %3, i64 0, i64 2
  store i32 2, i32* %16, align 8, !tbaa !5
  br label %29

17:                                               ; preds = %0, %17
  %18 = phi i64 [ %23, %17 ], [ 1, %0 ]
  %19 = call i32 (i8*, ...) @__isoc99_scanf(i8* getelementptr inbounds ([5 x i8], [5 x i8]* @.str.1, i64 0, i64 0), i32* nonnull %2)
  %20 = load i32, i32* %2, align 4, !tbaa !5
  %21 = add nsw i64 %18, -1
  %22 = getelementptr inbounds [10000 x i32], [10000 x i32]* %4, i64 0, i64 %21
  store i32 %20, i32* %22, align 4, !tbaa !5
  %23 = add nuw nsw i64 %18, 1
  %24 = load i32, i32* %1, align 4, !tbaa !5
  %25 = sext i32 %24 to i64
  %26 = icmp slt i64 %18, %25
  br i1 %26, label %17, label %14, !llvm.loop !9

27:                                               ; preds = %29
  %28 = icmp sgt i32 %15, 0
  br i1 %28, label %39, label %52

29:                                               ; preds = %53, %14
  %30 = phi i64 [ 2, %14 ], [ %67, %53 ]
  %31 = phi i32 [ 2, %14 ], [ %66, %53 ]
  %32 = phi i64 [ 1, %14 ], [ %62, %53 ]
  %33 = getelementptr inbounds [10000 x i32], [10000 x i32]* %3, i64 0, i64 %32
  %34 = load i32, i32* %33, align 4, !tbaa !5
  %35 = add nsw i32 %34, %31
  %36 = or i64 %30, 1
  %37 = getelementptr inbounds [10000 x i32], [10000 x i32]* %3, i64 0, i64 %36
  store i32 %35, i32* %37, align 4, !tbaa !5
  %38 = icmp eq i64 %36, 9999
  br i1 %38, label %27, label %53, !llvm.loop !11

39:                                               ; preds = %27, %39
  %40 = phi i64 [ %48, %39 ], [ 0, %27 ]
  %41 = getelementptr inbounds [10000 x i32], [10000 x i32]* %4, i64 0, i64 %40
  %42 = load i32, i32* %41, align 4, !tbaa !5
  %43 = add nsw i32 %42, -1
  %44 = sext i32 %43 to i64
  %45 = getelementptr inbounds [10000 x i32], [10000 x i32]* %3, i64 0, i64 %44
  %46 = load i32, i32* %45, align 4, !tbaa !5
  %47 = call i32 (i8*, ...) @printf(i8* nonnull dereferenceable(1) getelementptr inbounds ([4 x i8], [4 x i8]* @.str.2, i64 0, i64 0), i32 %46)
  %48 = add nuw nsw i64 %40, 1
  %49 = load i32, i32* %1, align 4, !tbaa !5
  %50 = sext i32 %49 to i64
  %51 = icmp slt i64 %48, %50
  br i1 %51, label %39, label %52, !llvm.loop !12

52:                                               ; preds = %39, %27
  call void @llvm.lifetime.end.p0i8(i64 40000, i8* nonnull %8) #3
  call void @llvm.lifetime.end.p0i8(i64 40000, i8* nonnull %7) #3
  call void @llvm.lifetime.end.p0i8(i64 4, i8* nonnull %6) #3
  call void @llvm.lifetime.end.p0i8(i64 4, i8* nonnull %5) #3
  ret i32 0

53:                                               ; preds = %29
  %54 = getelementptr inbounds [10000 x i32], [10000 x i32]* %3, i64 0, i64 %30
  %55 = load i32, i32* %54, align 8, !tbaa !5
  %56 = add nsw i32 %55, %35
  %57 = add nuw nsw i64 %30, 2
  %58 = getelementptr inbounds [10000 x i32], [10000 x i32]* %3, i64 0, i64 %57
  store i32 %56, i32* %58, align 8, !tbaa !5
  %59 = getelementptr inbounds [10000 x i32], [10000 x i32]* %3, i64 0, i64 %36
  %60 = load i32, i32* %59, align 4, !tbaa !5
  %61 = add nsw i32 %60, %56
  %62 = add nuw nsw i64 %30, 3
  %63 = getelementptr inbounds [10000 x i32], [10000 x i32]* %3, i64 0, i64 %62
  store i32 %61, i32* %63, align 4, !tbaa !5
  %64 = getelementptr inbounds [10000 x i32], [10000 x i32]* %3, i64 0, i64 %57
  %65 = load i32, i32* %64, align 8, !tbaa !5
  %66 = add nsw i32 %65, %61
  %67 = add nuw nsw i64 %30, 4
  %68 = getelementptr inbounds [10000 x i32], [10000 x i32]* %3, i64 0, i64 %67
  store i32 %66, i32* %68, align 8, !tbaa !5
  br label %29
}

; Function Attrs: argmemonly mustprogress nofree nosync nounwind willreturn
declare void @llvm.lifetime.start.p0i8(i64 immarg, i8* nocapture) #1

; Function Attrs: nofree nounwind
declare noundef i32 @__isoc99_scanf(i8* nocapture noundef readonly, ...) local_unnamed_addr #2

; Function Attrs: nofree nounwind
declare noundef i32 @printf(i8* nocapture noundef readonly, ...) local_unnamed_addr #2

; Function Attrs: argmemonly mustprogress nofree nosync nounwind willreturn
declare void @llvm.lifetime.end.p0i8(i64 immarg, i8* nocapture) #1


!llvm.module.flags = !{!0, !1, !2, !3}
!llvm.ident = !{!4}

!0 = !{i32 1, !"wchar_size", i32 4}
!1 = !{i32 7, !"PIC Level", i32 2}
!2 = !{i32 7, !"PIE Level", i32 2}
!3 = !{i32 7, !"uwtable", i32 1}
!4 = !{!"clang version 13.0.0"}
!5 = !{!6, !6, i64 0}
!6 = !{!"int", !7, i64 0}
!7 = !{!"omnipotent char", !8, i64 0}
!8 = !{!"Simple C/C++ TBAA"}
!9 = distinct !{!9, !10}
!10 = !{!"llvm.loop.mustprogress"}
!11 = distinct !{!11, !10}
!12 = distinct !{!12, !10}
